(ihuffman
HuffmanCoder
p0
(dp1
S'huffTree'
p2
(I1542640
S'369(),87\t\n:504 21'
p3
(I638882
S'369(),'
p4
(I314526
S'369('
p5
(I152348
S'369'
p6
(I67459
S'3'
p7
NNtp8
(I84889
S'69'
p9
(I41456
S'6'
p10
NNtp11
(I43433
S'9'
p12
NNtp13
tp14
tp15
(I162178
S'('
p16
NNtp17
tp18
(I324356
S'),'
p19
(I162178
S')'
p20
NNtp21
(I162178
S','
p22
NNtp23
tp24
tp25
(I903758
S'87\t\n:504 21'
p26
(I375561
S'87\t\n:504'
p27
(I180232
S'87\t\n'
p28
(I89556
S'87'
p29
(I44542
S'8'
p30
NNtp31
(I45014
S'7'
p32
NNtp33
tp34
(I90676
S'\t\n'
p35
(I45338
S'\t'
p36
NNtp37
(I45338
S'\n'
p38
NNtp39
tp40
tp41
(I195329
S':504'
p42
(I91226
S':5'
p43
(I45338
S':'
p44
NNtp45
(I45888
S'5'
p46
NNtp47
tp48
(I104103
S'04'
p49
(I46971
S'0'
p50
NNtp51
(I57132
S'4'
p52
NNtp53
tp54
tp55
tp56
(I528197
S' 21'
p57
(I260458
S' 2'
p58
(I116840
S' '
p59
NNtp60
(I143618
S'2'
p61
NNtp62
tp63
(I267739
S'1'
p64
NNtp65
tp66
tp67
tp68
sS'codeMap'
p69
(dp70
g59
S'1100'
p71
sg36
S'10010'
p72
sg20
S'010'
p73
sg16
S'001'
p74
sg38
S'10011'
p75
sg22
S'011'
p76
sg64
S'111'
p77
sg50
S'10110'
p78
sg7
S'0000'
p79
sg61
S'1101'
p80
sg46
S'10101'
p81
sg52
S'10111'
p82
sg32
S'10001'
p83
sg10
S'00010'
p84
sg12
S'00011'
p85
sg30
S'10000'
p86
sg44
S'10100'
p87
ssb.